(lp0
I0
aI1
aI2
aI3
aI4
aI7
aI9
aI11
aI12
aI13
aI14
aI16
aI17
aI19
aI22
aI23
aI25
aI26
aI28
aI29
aI30
aI31
aI33
aI35
aI36
aI38
aI40
aI42
aI43
aI44
aI48
aI49
aI50
aI53
aI54
aI55
aI57
aI58
aI59
aI61
aI64
aI67
aI68
aI69
aI72
aI74
aI75
aI76
aI77
aI78
aI79
aI80
aI81
aI83
aI84
aI85
aI86
aI87
aI90
aI91
aI93
aI95
aI97
aI102
aI103
aI104
aI106
aI109
aI111
aI114
aI115
aI116
aI117
aI118
aI123
aI124
aI125
aI126
aI128
aI129
aI130
aI132
aI133
aI135
aI139
aI140
a.